target datalayout = "e-m:e-p270:32:32-p271:32:32-p272:64:64-i64:64-i128:128-f80:128-n8:16:32:64-S128"
target triple = "x86_64-pc-linux-gnu"

%struct.bignum_st = type { ptr, i32, i32, i32, i32 }

; Function Attrs: inlinehint nounwind uwtable
define internal i32 @constant_time_msb(i32 noundef %0) #4 {
  %2 = alloca i32, align 4
  store i32 %0, ptr %2, align 4, !tbaa !10
  %3 = load i32, ptr %2, align 4, !tbaa !10
  %4 = lshr i32 %3, 31
  %5 = sub i32 0, %4
  ret i32 %5
}

; Function Attrs: inlinehint nounwind uwtable
define internal i32 @constant_time_is_zero(i32 noundef %0) #4 {
  %2 = alloca i32, align 4
  store i32 %0, ptr %2, align 4, !tbaa !10
  %3 = load i32, ptr %2, align 4, !tbaa !10
  %4 = xor i32 %3, -1
  %5 = load i32, ptr %2, align 4, !tbaa !10
  %6 = sub i32 %5, 1
  %7 = and i32 %4, %6
  %8 = call i32 @constant_time_msb(i32 noundef %7)
  ret i32 %8
}

; Function Attrs: inlinehint nounwind uwtable
define internal i32 @constant_time_eq(i32 noundef %0, i32 noundef %1) #4 {
  %3 = alloca i32, align 4
  %4 = alloca i32, align 4
  store i32 %0, ptr %3, align 4, !tbaa !10
  store i32 %1, ptr %4, align 4, !tbaa !10
  %5 = load i32, ptr %3, align 4, !tbaa !10
  %6 = load i32, ptr %4, align 4, !tbaa !10
  %7 = xor i32 %5, %6
  %8 = call i32 @constant_time_is_zero(i32 noundef %7)
  ret i32 %8
}

; Function Attrs: inlinehint nounwind uwtable
define internal i32 @constant_time_eq_int(i32 noundef %0, i32 noundef %1) #4 {
  %3 = alloca i32, align 4
  %4 = alloca i32, align 4
  store i32 %0, ptr %3, align 4, !tbaa !10
  store i32 %1, ptr %4, align 4, !tbaa !10
  %5 = load i32, ptr %3, align 4, !tbaa !10
  %6 = load i32, ptr %4, align 4, !tbaa !10
  %7 = call i32 @constant_time_eq(i32 noundef %5, i32 noundef %6)
  ret i32 %7
}

; Function Attrs: nounwind uwtable
define internal i32 @MOD_EXP_CTIME_COPY_FROM_PREBUF(ptr noundef %0, i32 noundef %1, ptr noundef %2, i32 noundef %3, i32 noundef %4) #0 {
  %6 = alloca i32, align 4
  %7 = alloca ptr, align 8
  %8 = alloca i32, align 4
  %9 = alloca ptr, align 8
  %10 = alloca i32, align 4
  %11 = alloca i32, align 4
  %12 = alloca i32, align 4
  %13 = alloca i32, align 4
  %14 = alloca i32, align 4
  %15 = alloca ptr, align 8
  %16 = alloca i32, align 4
  %17 = alloca i64, align 8
  %18 = alloca i32, align 4
  %19 = alloca i64, align 8
  %20 = alloca i64, align 8
  %21 = alloca i64, align 8
  %22 = alloca i64, align 8
  %23 = alloca i64, align 8
  store ptr %0, ptr %7, align 8, !tbaa !3
  store i32 %1, ptr %8, align 4, !tbaa !10
  store ptr %2, ptr %9, align 8, !tbaa !32
  store i32 %3, ptr %10, align 4, !tbaa !10
  store i32 %4, ptr %11, align 4, !tbaa !10
  call void @llvm.lifetime.start.p0(i64 4, ptr %12) #5
  call void @llvm.lifetime.start.p0(i64 4, ptr %13) #5
  call void @llvm.lifetime.start.p0(i64 4, ptr %14) #5
  %24 = load i32, ptr %11, align 4, !tbaa !10
  %25 = shl i32 1, %24
  store i32 %25, ptr %14, align 4, !tbaa !10
  call void @llvm.lifetime.start.p0(i64 8, ptr %15) #5
  %26 = load ptr, ptr %9, align 8, !tbaa !32
  store ptr %26, ptr %15, align 8, !tbaa !38
  %27 = load ptr, ptr %7, align 8, !tbaa !3
  %28 = load i32, ptr %8, align 4, !tbaa !10
  %29 = call ptr @bn_wexpand(ptr noundef %27, i32 noundef %28)
  %30 = icmp eq ptr %29, null
  br i1 %30, label %31, label %32

31:                                               ; preds = %5
  store i32 0, ptr %6, align 4
  store i32 1, ptr %16, align 4
  br label %200

32:                                               ; preds = %5
  %33 = load i32, ptr %11, align 4, !tbaa !10
  %34 = icmp sle i32 %33, 3
  br i1 %34, label %35, label %79

35:                                               ; preds = %32
  store i32 0, ptr %12, align 4, !tbaa !10
  br label %36

36:                                               ; preds = %71, %35
  %37 = load i32, ptr %12, align 4, !tbaa !10
  %38 = load i32, ptr %8, align 4, !tbaa !10
  %39 = icmp slt i32 %37, %38
  br i1 %39, label %40, label %78

40:                                               ; preds = %36
  call void @llvm.lifetime.start.p0(i64 8, ptr %17) #5
  store i64 0, ptr %17, align 8, !tbaa !19
  store i32 0, ptr %13, align 4, !tbaa !10
  br label %41

41:                                               ; preds = %60, %40
  %42 = load i32, ptr %13, align 4, !tbaa !10
  %43 = load i32, ptr %14, align 4, !tbaa !10
  %44 = icmp slt i32 %42, %43
  br i1 %44, label %45, label %63

45:                                               ; preds = %41
  %46 = load ptr, ptr %15, align 8, !tbaa !38
  %47 = load i32, ptr %13, align 4, !tbaa !10
  %48 = sext i32 %47 to i64
  %49 = getelementptr inbounds i64, ptr %46, i64 %48
  %50 = load volatile i64, ptr %49, align 8, !tbaa !19
  %51 = load i32, ptr %13, align 4, !tbaa !10
  %52 = load i32, ptr %10, align 4, !tbaa !10
  %53 = call i32 @constant_time_eq_int(i32 noundef %51, i32 noundef %52)
  %54 = and i32 %53, 1
  %55 = zext i32 %54 to i64
  %56 = sub i64 0, %55
  %57 = and i64 %50, %56
  %58 = load i64, ptr %17, align 8, !tbaa !19
  %59 = or i64 %58, %57
  store i64 %59, ptr %17, align 8, !tbaa !19
  br label %60

60:                                               ; preds = %45
  %61 = load i32, ptr %13, align 4, !tbaa !10
  %62 = add nsw i32 %61, 1
  store i32 %62, ptr %13, align 4, !tbaa !10
  br label %41, !llvm.loop !54

63:                                               ; preds = %41
  %64 = load i64, ptr %17, align 8, !tbaa !19
  %65 = load ptr, ptr %7, align 8, !tbaa !3
  %66 = getelementptr inbounds nuw %struct.bignum_st, ptr %65, i32 0, i32 0
  %67 = load ptr, ptr %66, align 8, !tbaa !18
  %68 = load i32, ptr %12, align 4, !tbaa !10
  %69 = sext i32 %68 to i64
  %70 = getelementptr inbounds i64, ptr %67, i64 %69
  store i64 %64, ptr %70, align 8, !tbaa !19
  call void @llvm.lifetime.end.p0(i64 8, ptr %17) #5
  br label %71

71:                                               ; preds = %63
  %72 = load i32, ptr %12, align 4, !tbaa !10
  %73 = add nsw i32 %72, 1
  store i32 %73, ptr %12, align 4, !tbaa !10
  %74 = load i32, ptr %14, align 4, !tbaa !10
  %75 = load ptr, ptr %15, align 8, !tbaa !38
  %76 = sext i32 %74 to i64
  %77 = getelementptr inbounds i64, ptr %75, i64 %76
  store ptr %77, ptr %15, align 8, !tbaa !38
  br label %36, !llvm.loop !55

78:                                               ; preds = %36
  br label %192

79:                                               ; preds = %32
  call void @llvm.lifetime.start.p0(i64 4, ptr %18) #5
  %80 = load i32, ptr %11, align 4, !tbaa !10
  %81 = sub nsw i32 %80, 2
  %82 = shl i32 1, %81
  store i32 %82, ptr %18, align 4, !tbaa !10
  call void @llvm.lifetime.start.p0(i64 8, ptr %19) #5
  call void @llvm.lifetime.start.p0(i64 8, ptr %20) #5
  call void @llvm.lifetime.start.p0(i64 8, ptr %21) #5
  call void @llvm.lifetime.start.p0(i64 8, ptr %22) #5
  %83 = load i32, ptr %10, align 4, !tbaa !10
  %84 = load i32, ptr %11, align 4, !tbaa !10
  %85 = sub nsw i32 %84, 2
  %86 = ashr i32 %83, %85
  store i32 %86, ptr %12, align 4, !tbaa !10
  %87 = load i32, ptr %18, align 4, !tbaa !10
  %88 = sub nsw i32 %87, 1
  %89 = load i32, ptr %10, align 4, !tbaa !10
  %90 = and i32 %89, %88
  store i32 %90, ptr %10, align 4, !tbaa !10
  %91 = load i32, ptr %12, align 4, !tbaa !10
  %92 = call i32 @constant_time_eq_int(i32 noundef %91, i32 noundef 0)
  %93 = and i32 %92, 1
  %94 = zext i32 %93 to i64
  %95 = sub i64 0, %94
  store i64 %95, ptr %19, align 8, !tbaa !19
  %96 = load i32, ptr %12, align 4, !tbaa !10
  %97 = call i32 @constant_time_eq_int(i32 noundef %96, i32 noundef 1)
  %98 = and i32 %97, 1
  %99 = zext i32 %98 to i64
  %100 = sub i64 0, %99
  store i64 %100, ptr %20, align 8, !tbaa !19
  %101 = load i32, ptr %12, align 4, !tbaa !10
  %102 = call i32 @constant_time_eq_int(i32 noundef %101, i32 noundef 2)
  %103 = and i32 %102, 1
  %104 = zext i32 %103 to i64
  %105 = sub i64 0, %104
  store i64 %105, ptr %21, align 8, !tbaa !19
  %106 = load i32, ptr %12, align 4, !tbaa !10
  %107 = call i32 @constant_time_eq_int(i32 noundef %106, i32 noundef 3)
  %108 = and i32 %107, 1
  %109 = zext i32 %108 to i64
  %110 = sub i64 0, %109
  store i64 %110, ptr %22, align 8, !tbaa !19
  store i32 0, ptr %12, align 4, !tbaa !10
  br label %111

111:                                              ; preds = %184, %79
  %112 = load i32, ptr %12, align 4, !tbaa !10
  %113 = load i32, ptr %8, align 4, !tbaa !10
  %114 = icmp slt i32 %112, %113
  br i1 %114, label %115, label %191

115:                                              ; preds = %111
  call void @llvm.lifetime.start.p0(i64 8, ptr %23) #5
  store i64 0, ptr %23, align 8, !tbaa !19
  store i32 0, ptr %13, align 4, !tbaa !10
  br label %116

116:                                              ; preds = %173, %115
  %117 = load i32, ptr %13, align 4, !tbaa !10
  %118 = load i32, ptr %18, align 4, !tbaa !10
  %119 = icmp slt i32 %117, %118
  br i1 %119, label %120, label %176

120:                                              ; preds = %116
  %121 = load ptr, ptr %15, align 8, !tbaa !38
  %122 = load i32, ptr %13, align 4, !tbaa !10
  %123 = load i32, ptr %18, align 4, !tbaa !10
  %124 = mul nsw i32 0, %123
  %125 = add nsw i32 %122, %124
  %126 = sext i32 %125 to i64
  %127 = getelementptr inbounds i64, ptr %121, i64 %126
  %128 = load volatile i64, ptr %127, align 8, !tbaa !19
  %129 = load i64, ptr %19, align 8, !tbaa !19
  %130 = and i64 %128, %129
  %131 = load ptr, ptr %15, align 8, !tbaa !38
  %132 = load i32, ptr %13, align 4, !tbaa !10
  %133 = load i32, ptr %18, align 4, !tbaa !10
  %134 = mul nsw i32 1, %133
  %135 = add nsw i32 %132, %134
  %136 = sext i32 %135 to i64
  %137 = getelementptr inbounds i64, ptr %131, i64 %136
  %138 = load volatile i64, ptr %137, align 8, !tbaa !19
  %139 = load i64, ptr %20, align 8, !tbaa !19
  %140 = and i64 %138, %139
  %141 = or i64 %130, %140
  %142 = load ptr, ptr %15, align 8, !tbaa !38
  %143 = load i32, ptr %13, align 4, !tbaa !10
  %144 = load i32, ptr %18, align 4, !tbaa !10
  %145 = mul nsw i32 2, %144
  %146 = add nsw i32 %143, %145
  %147 = sext i32 %146 to i64
  %148 = getelementptr inbounds i64, ptr %142, i64 %147
  %149 = load volatile i64, ptr %148, align 8, !tbaa !19
  %150 = load i64, ptr %21, align 8, !tbaa !19
  %151 = and i64 %149, %150
  %152 = or i64 %141, %151
  %153 = load ptr, ptr %15, align 8, !tbaa !38
  %154 = load i32, ptr %13, align 4, !tbaa !10
  %155 = load i32, ptr %18, align 4, !tbaa !10
  %156 = mul nsw i32 3, %155
  %157 = add nsw i32 %154, %156
  %158 = sext i32 %157 to i64
  %159 = getelementptr inbounds i64, ptr %153, i64 %158
  %160 = load volatile i64, ptr %159, align 8, !tbaa !19
  %161 = load i64, ptr %22, align 8, !tbaa !19
  %162 = and i64 %160, %161
  %163 = or i64 %152, %162
  %164 = load i32, ptr %13, align 4, !tbaa !10
  %165 = load i32, ptr %10, align 4, !tbaa !10
  %166 = call i32 @constant_time_eq_int(i32 noundef %164, i32 noundef %165)
  %167 = and i32 %166, 1
  %168 = zext i32 %167 to i64
  %169 = sub i64 0, %168
  %170 = and i64 %163, %169
  %171 = load i64, ptr %23, align 8, !tbaa !19
  %172 = or i64 %171, %170
  store i64 %172, ptr %23, align 8, !tbaa !19
  br label %173

173:                                              ; preds = %120
  %174 = load i32, ptr %13, align 4, !tbaa !10
  %175 = add nsw i32 %174, 1
  store i32 %175, ptr %13, align 4, !tbaa !10
  br label %116, !llvm.loop !56

176:                                              ; preds = %116
  %177 = load i64, ptr %23, align 8, !tbaa !19
  %178 = load ptr, ptr %7, align 8, !tbaa !3
  %179 = getelementptr inbounds nuw %struct.bignum_st, ptr %178, i32 0, i32 0
  %180 = load ptr, ptr %179, align 8, !tbaa !18
  %181 = load i32, ptr %12, align 4, !tbaa !10
  %182 = sext i32 %181 to i64
  %183 = getelementptr inbounds i64, ptr %180, i64 %182
  store i64 %177, ptr %183, align 8, !tbaa !19
  call void @llvm.lifetime.end.p0(i64 8, ptr %23) #5
  br label %184

184:                                              ; preds = %176
  %185 = load i32, ptr %12, align 4, !tbaa !10
  %186 = add nsw i32 %185, 1
  store i32 %186, ptr %12, align 4, !tbaa !10
  %187 = load i32, ptr %14, align 4, !tbaa !10
  %188 = load ptr, ptr %15, align 8, !tbaa !38
  %189 = sext i32 %187 to i64
  %190 = getelementptr inbounds i64, ptr %188, i64 %189
  store ptr %190, ptr %15, align 8, !tbaa !38
  br label %111, !llvm.loop !57

191:                                              ; preds = %111
  call void @llvm.lifetime.end.p0(i64 8, ptr %22) #5
  call void @llvm.lifetime.end.p0(i64 8, ptr %21) #5
  call void @llvm.lifetime.end.p0(i64 8, ptr %20) #5
  call void @llvm.lifetime.end.p0(i64 8, ptr %19) #5
  call void @llvm.lifetime.end.p0(i64 4, ptr %18) #5
  br label %192

192:                                              ; preds = %191, %78
  %193 = load i32, ptr %8, align 4, !tbaa !10
  %194 = load ptr, ptr %7, align 8, !tbaa !3
  %195 = getelementptr inbounds nuw %struct.bignum_st, ptr %194, i32 0, i32 1
  store i32 %193, ptr %195, align 8, !tbaa !14
  %196 = load ptr, ptr %7, align 8, !tbaa !3
  %197 = getelementptr inbounds nuw %struct.bignum_st, ptr %196, i32 0, i32 4
  %198 = load i32, ptr %197, align 4, !tbaa !26
  %199 = or i32 %198, 0
  store i32 %199, ptr %197, align 4, !tbaa !26
  store i32 1, ptr %6, align 4
  store i32 1, ptr %16, align 4
  br label %200

200:                                              ; preds = %192, %31
  call void @llvm.lifetime.end.p0(i64 8, ptr %15) #5
  call void @llvm.lifetime.end.p0(i64 4, ptr %14) #5
  call void @llvm.lifetime.end.p0(i64 4, ptr %13) #5
  call void @llvm.lifetime.end.p0(i64 4, ptr %12) #5
  %201 = load i32, ptr %6, align 4
  ret i32 %201
}