; Function Attrs: nounwind uwtable
define internal fastcc range(i32 0, 2) i32 @MOD_EXP_CTIME_COPY_FROM_PREBUF(ptr noundef nonnull %0, i32 noundef range(i32 -2147483648, 1048576) %1, ptr noundef nonnull %2, i32 noundef %3, i32 noundef range(i32 1, 7) %4) unnamed_addr #0 {
  %6 = shl nuw nsw i32 1, %4
  %7 = tail call ptr @bn_wexpand(ptr noundef nonnull %0, i32 noundef %1) #6
  %8 = icmp eq ptr %7, null
  br i1 %8, label %98, label %9

9:                                                ; preds = %5
  %10 = icmp samesign ult i32 %4, 4
  br i1 %10, label %.preheader81, label %24

.preheader81:                                     ; preds = %9
  %11 = icmp sgt i32 %1, 0
  br i1 %11, label %.preheader.lr.ph, label %.loopexit

.preheader.lr.ph:                                 ; preds = %.preheader81
  %12 = load ptr, ptr %0, align 8, !tbaa !13
  %13 = zext nneg i32 %6 to i64
  %14 = zext i32 %3 to i64
  %wide.trip.count364 = zext nneg i32 %1 to i64
  br label %.preheader

.preheader:                                       ; preds = %.preheader.lr.ph, %21
  %indvars.iv361 = phi i64 [ 0, %.preheader.lr.ph ], [ %indvars.iv.next362, %21 ]
  %.067162 = phi ptr [ %2, %.preheader.lr.ph ], [ %23, %21 ]
  br label %15

15:                                               ; preds = %.preheader, %15
  %indvars.iv355 = phi i64 [ 0, %.preheader ], [ %indvars.iv.next356, %15 ]
  %.069160 = phi i64 [ 0, %.preheader ], [ %20, %15 ]
  %16 = getelementptr inbounds nuw i64, ptr %.067162, i64 %indvars.iv355
  %17 = load volatile i64, ptr %16, align 8, !tbaa !14
  %18 = icmp eq i64 %indvars.iv355, %14
  %19 = select i1 %18, i64 %17, i64 0
  %20 = or i64 %19, %.069160
  %indvars.iv.next356 = add nuw nsw i64 %indvars.iv355, 1
  %exitcond360.not = icmp eq i64 %indvars.iv.next356, %13
  br i1 %exitcond360.not, label %21, label %15, !llvm.loop !44

21:                                               ; preds = %15
  %22 = getelementptr inbounds nuw i64, ptr %12, i64 %indvars.iv361
  store i64 %20, ptr %22, align 8, !tbaa !14
  %indvars.iv.next362 = add nuw nsw i64 %indvars.iv361, 1
  %23 = getelementptr inbounds nuw i64, ptr %.067162, i64 %13
  %exitcond365.not = icmp eq i64 %indvars.iv.next362, %wide.trip.count364
  br i1 %exitcond365.not, label %.loopexit, label %.preheader, !llvm.loop !45

24:                                               ; preds = %9
  %25 = add nsw i32 %4, -2
  %26 = shl nuw nsw i32 1, %25
  %27 = ashr i32 %3, %25
  %.fr164 = freeze i32 %27
  %28 = add nsw i32 %26, -1
  %29 = and i32 %28, %3
  %30 = icmp eq i32 %.fr164, 3
  %31 = icmp sgt i32 %1, 0
  br i1 %31, label %.preheader82.lr.ph, label %.loopexit

.preheader82.lr.ph:                               ; preds = %24
  %32 = shl nuw nsw i32 2, %25
  %33 = shl nuw nsw i32 3, %25
  %34 = load ptr, ptr %0, align 8, !tbaa !13
  %35 = zext nneg i32 %6 to i64
  %wide.trip.count199 = zext nneg i32 %1 to i64
  switch i32 %.fr164, label %.preheader82.preheader [
    i32 0, label %.preheader82.us.preheader
    i32 1, label %.preheader82.us102.preheader
    i32 2, label %.preheader82.us105.preheader
  ]

.preheader82.us.preheader:                        ; preds = %.preheader82.lr.ph
  %36 = zext nneg i32 %26 to i64
  %37 = zext nneg i32 %32 to i64
  %38 = zext nneg i32 %33 to i64
  %39 = zext nneg i32 %29 to i64
  br label %.preheader82.us

.preheader82.us:                                  ; preds = %.preheader82.us.preheader, %.split.us.us.split.split.split
  %indvars.iv273 = phi i64 [ 0, %.preheader82.us.preheader ], [ %indvars.iv.next274, %.split.us.us.split.split.split ]
  %.16898.us = phi ptr [ %2, %.preheader82.us.preheader ], [ %50, %.split.us.us.split.split.split ]
  %invariant.gep390 = getelementptr inbounds nuw i64, ptr %.16898.us, i64 %36
  %invariant.gep392 = getelementptr inbounds nuw i64, ptr %.16898.us, i64 %37
  %invariant.gep394 = getelementptr inbounds nuw i64, ptr %.16898.us, i64 %38
  br label %40

40:                                               ; preds = %40, %.preheader82.us
  %indvars.iv267 = phi i64 [ %indvars.iv.next268, %40 ], [ 0, %.preheader82.us ]
  %.085.us.us = phi i64 [ %48, %40 ], [ 0, %.preheader82.us ]
  %41 = getelementptr inbounds nuw i64, ptr %.16898.us, i64 %indvars.iv267
  %42 = load volatile i64, ptr %41, align 8, !tbaa !14
  %gep391 = getelementptr inbounds nuw i64, ptr %invariant.gep390, i64 %indvars.iv267
  %43 = load volatile i64, ptr %gep391, align 8, !tbaa !14
  %gep393 = getelementptr inbounds nuw i64, ptr %invariant.gep392, i64 %indvars.iv267
  %44 = load volatile i64, ptr %gep393, align 8, !tbaa !14
  %gep395 = getelementptr inbounds nuw i64, ptr %invariant.gep394, i64 %indvars.iv267
  %45 = load volatile i64, ptr %gep395, align 8, !tbaa !14
  %46 = icmp eq i64 %indvars.iv267, %39
  %47 = select i1 %46, i64 %42, i64 0
  %48 = or i64 %47, %.085.us.us
  %indvars.iv.next268 = add nuw nsw i64 %indvars.iv267, 1
  %exitcond272.not = icmp eq i64 %indvars.iv.next268, %36
  br i1 %exitcond272.not, label %.split.us.us.split.split.split, label %40, !llvm.loop !46

.split.us.us.split.split.split:                   ; preds = %40
  %49 = getelementptr inbounds nuw i64, ptr %34, i64 %indvars.iv273
  store i64 %48, ptr %49, align 8, !tbaa !14
  %indvars.iv.next274 = add nuw nsw i64 %indvars.iv273, 1
  %50 = getelementptr inbounds nuw i64, ptr %.16898.us, i64 %35
  %exitcond277.not = icmp eq i64 %indvars.iv.next274, %wide.trip.count199
  br i1 %exitcond277.not, label %.loopexit, label %.preheader82.us, !llvm.loop !47

.preheader82.us102.preheader:                     ; preds = %.preheader82.lr.ph
  %51 = zext nneg i32 %26 to i64
  %52 = zext nneg i32 %32 to i64
  %53 = zext nneg i32 %33 to i64
  %54 = zext nneg i32 %29 to i64
  br label %.preheader82.us102

.preheader82.us102:                               ; preds = %.preheader82.us102.preheader, %.split.split.us.us.split.split
  %indvars.iv229 = phi i64 [ 0, %.preheader82.us102.preheader ], [ %indvars.iv.next230, %.split.split.us.us.split.split ]
  %.16898.us104 = phi ptr [ %2, %.preheader82.us102.preheader ], [ %65, %.split.split.us.us.split.split ]
  %invariant.gep384 = getelementptr inbounds nuw i64, ptr %.16898.us104, i64 %51
  %invariant.gep386 = getelementptr inbounds nuw i64, ptr %.16898.us104, i64 %52
  %invariant.gep388 = getelementptr inbounds nuw i64, ptr %.16898.us104, i64 %53
  br label %55

55:                                               ; preds = %55, %.preheader82.us102
  %indvars.iv223 = phi i64 [ %indvars.iv.next224, %55 ], [ 0, %.preheader82.us102 ]
  %.085.us86.us = phi i64 [ %63, %55 ], [ 0, %.preheader82.us102 ]
  %56 = getelementptr inbounds nuw i64, ptr %.16898.us104, i64 %indvars.iv223
  %57 = load volatile i64, ptr %56, align 8, !tbaa !14
  %gep385 = getelementptr inbounds nuw i64, ptr %invariant.gep384, i64 %indvars.iv223
  %58 = load volatile i64, ptr %gep385, align 8, !tbaa !14
  %gep387 = getelementptr inbounds nuw i64, ptr %invariant.gep386, i64 %indvars.iv223
  %59 = load volatile i64, ptr %gep387, align 8, !tbaa !14
  %gep389 = getelementptr inbounds nuw i64, ptr %invariant.gep388, i64 %indvars.iv223
  %60 = load volatile i64, ptr %gep389, align 8, !tbaa !14
  %61 = icmp eq i64 %indvars.iv223, %54
  %62 = select i1 %61, i64 %58, i64 0
  %63 = or i64 %62, %.085.us86.us
  %indvars.iv.next224 = add nuw nsw i64 %indvars.iv223, 1
  %exitcond228.not = icmp eq i64 %indvars.iv.next224, %51
  br i1 %exitcond228.not, label %.split.split.us.us.split.split, label %55, !llvm.loop !46

.split.split.us.us.split.split:                   ; preds = %55
  %64 = getelementptr inbounds nuw i64, ptr %34, i64 %indvars.iv229
  store i64 %63, ptr %64, align 8, !tbaa !14
  %indvars.iv.next230 = add nuw nsw i64 %indvars.iv229, 1
  %65 = getelementptr inbounds nuw i64, ptr %.16898.us104, i64 %35
  %exitcond233.not = icmp eq i64 %indvars.iv.next230, %wide.trip.count199
  br i1 %exitcond233.not, label %.loopexit, label %.preheader82.us102, !llvm.loop !47

.preheader82.preheader:                           ; preds = %.preheader82.lr.ph
  %66 = zext nneg i32 %29 to i64
  %67 = zext nneg i32 %26 to i64
  %68 = zext nneg i32 %32 to i64
  %69 = zext nneg i32 %33 to i64
  br label %.preheader82

.preheader82.us105.preheader:                     ; preds = %.preheader82.lr.ph
  %70 = zext nneg i32 %26 to i64
  %71 = zext nneg i32 %32 to i64
  %72 = zext nneg i32 %33 to i64
  %73 = zext nneg i32 %29 to i64
  br label %.preheader82.us105

.preheader82.us105:                               ; preds = %.preheader82.us105.preheader, %.split.split.split.us.us.split
  %indvars.iv207 = phi i64 [ 0, %.preheader82.us105.preheader ], [ %indvars.iv.next208, %.split.split.split.us.us.split ]
  %.16898.us107 = phi ptr [ %2, %.preheader82.us105.preheader ], [ %84, %.split.split.split.us.us.split ]
  %invariant.gep378 = getelementptr inbounds nuw i64, ptr %.16898.us107, i64 %70
  %invariant.gep380 = getelementptr inbounds nuw i64, ptr %.16898.us107, i64 %71
  %invariant.gep382 = getelementptr inbounds nuw i64, ptr %.16898.us107, i64 %72
  br label %74

74:                                               ; preds = %74, %.preheader82.us105
  %indvars.iv201 = phi i64 [ %indvars.iv.next202, %74 ], [ 0, %.preheader82.us105 ]
  %.085.us92.us = phi i64 [ %82, %74 ], [ 0, %.preheader82.us105 ]
  %75 = getelementptr inbounds nuw i64, ptr %.16898.us107, i64 %indvars.iv201
  %76 = load volatile i64, ptr %75, align 8, !tbaa !14
  %gep379 = getelementptr inbounds nuw i64, ptr %invariant.gep378, i64 %indvars.iv201
  %77 = load volatile i64, ptr %gep379, align 8, !tbaa !14
  %gep381 = getelementptr inbounds nuw i64, ptr %invariant.gep380, i64 %indvars.iv201
  %78 = load volatile i64, ptr %gep381, align 8, !tbaa !14
  %gep383 = getelementptr inbounds nuw i64, ptr %invariant.gep382, i64 %indvars.iv201
  %79 = load volatile i64, ptr %gep383, align 8, !tbaa !14
  %80 = icmp eq i64 %indvars.iv201, %73
  %81 = select i1 %80, i64 %78, i64 0
  %82 = or i64 %81, %.085.us92.us
  %indvars.iv.next202 = add nuw nsw i64 %indvars.iv201, 1
  %exitcond206.not = icmp eq i64 %indvars.iv.next202, %70
  br i1 %exitcond206.not, label %.split.split.split.us.us.split, label %74, !llvm.loop !46

.split.split.split.us.us.split:                   ; preds = %74
  %83 = getelementptr inbounds nuw i64, ptr %34, i64 %indvars.iv207
  store i64 %82, ptr %83, align 8, !tbaa !14
  %indvars.iv.next208 = add nuw nsw i64 %indvars.iv207, 1
  %84 = getelementptr inbounds nuw i64, ptr %.16898.us107, i64 %35
  %exitcond211.not = icmp eq i64 %indvars.iv.next208, %wide.trip.count199
  br i1 %exitcond211.not, label %.loopexit, label %.preheader82.us105, !llvm.loop !47

.preheader82:                                     ; preds = %.preheader82.preheader, %.split.split.split
  %indvars.iv196 = phi i64 [ 0, %.preheader82.preheader ], [ %indvars.iv.next197, %.split.split.split ]
  %.16898 = phi ptr [ %2, %.preheader82.preheader ], [ %96, %.split.split.split ]
  %invariant.gep = getelementptr inbounds nuw i64, ptr %.16898, i64 %67
  %invariant.gep374 = getelementptr inbounds nuw i64, ptr %.16898, i64 %68
  %invariant.gep376 = getelementptr inbounds nuw i64, ptr %.16898, i64 %69
  br label %85

85:                                               ; preds = %.preheader82, %85
  %indvars.iv = phi i64 [ 0, %.preheader82 ], [ %indvars.iv.next, %85 ]
  %.085 = phi i64 [ 0, %.preheader82 ], [ %94, %85 ]
  %86 = getelementptr inbounds nuw i64, ptr %.16898, i64 %indvars.iv
  %87 = load volatile i64, ptr %86, align 8, !tbaa !14
  %gep = getelementptr inbounds nuw i64, ptr %invariant.gep, i64 %indvars.iv
  %88 = load volatile i64, ptr %gep, align 8, !tbaa !14
  %gep375 = getelementptr inbounds nuw i64, ptr %invariant.gep374, i64 %indvars.iv
  %89 = load volatile i64, ptr %gep375, align 8, !tbaa !14
  %gep377 = getelementptr inbounds nuw i64, ptr %invariant.gep376, i64 %indvars.iv
  %90 = load volatile i64, ptr %gep377, align 8, !tbaa !14
  %91 = icmp eq i64 %indvars.iv, %66
  %92 = and i1 %91, %30
  %93 = select i1 %92, i64 %90, i64 0
  %94 = or i64 %93, %.085
  %indvars.iv.next = add nuw nsw i64 %indvars.iv, 1
  %exitcond.not = icmp eq i64 %indvars.iv.next, %67
  br i1 %exitcond.not, label %.split.split.split, label %85, !llvm.loop !46

.split.split.split:                               ; preds = %85
  %95 = getelementptr inbounds nuw i64, ptr %34, i64 %indvars.iv196
  store i64 %94, ptr %95, align 8, !tbaa !14
  %indvars.iv.next197 = add nuw nsw i64 %indvars.iv196, 1
  %96 = getelementptr inbounds nuw i64, ptr %.16898, i64 %35
  %exitcond200.not = icmp eq i64 %indvars.iv.next197, %wide.trip.count199
  br i1 %exitcond200.not, label %.loopexit, label %.preheader82, !llvm.loop !47

.loopexit:                                        ; preds = %.split.split.split.us.us.split, %.split.split.us.us.split.split, %.split.us.us.split.split.split, %.split.split.split, %21, %24, %.preheader81
  %97 = getelementptr inbounds nuw i8, ptr %0, i64 8
  store i32 %1, ptr %97, align 8, !tbaa !5
  br label %98

98:                                               ; preds = %5, %.loopexit
  %.063 = phi i32 [ 1, %.loopexit ], [ 0, %5 ]
  ret i32 %.063
}